target datalayout = "e-m:e-p270:32:32-p271:32:32-p272:64:64-i64:64-i128:128-f80:128-n8:16:32:64-S128"
target triple = "x86_64-pc-linux-gnu"

@.str.41 = private unnamed_addr constant [22 x i8] c"nil or table expected\00", align 1

; Function Attrs: nounwind uwtable
define internal i32 @db_setmetatable(ptr noundef %0) #0 {
  %2 = alloca ptr, align 8
  %3 = alloca i32, align 4
  store ptr %0, ptr %2, align 8, !tbaa !4
  call void @llvm.lifetime.start.p0(i64 4, ptr %3) #4
  %4 = load ptr, ptr %2, align 8, !tbaa !4
  %5 = call i32 @lua_type(ptr noundef %4, i32 noundef 2)
  store i32 %5, ptr %3, align 4, !tbaa !11
  %6 = load i32, ptr %3, align 4, !tbaa !11
  %7 = icmp eq i32 %6, 0
  br i1 %7, label %14, label %8

8:                                                ; preds = %1
  %9 = load i32, ptr %3, align 4, !tbaa !11
  %10 = icmp eq i32 %9, 5
  br i1 %10, label %14, label %11

11:                                               ; preds = %8
  %12 = load ptr, ptr %2, align 8, !tbaa !4
  %13 = call i32 @luaL_argerror(ptr noundef %12, i32 noundef 2, ptr noundef @.str.41)
  br label %14

14:                                               ; preds = %11, %8, %1
  %15 = load ptr, ptr %2, align 8, !tbaa !4
  call void @lua_settop(ptr noundef %15, i32 noundef 2)
  %16 = load ptr, ptr %2, align 8, !tbaa !4
  %17 = load ptr, ptr %2, align 8, !tbaa !4
  %18 = call i32 @lua_setmetatable(ptr noundef %17, i32 noundef 1)
  call void @lua_pushboolean(ptr noundef %16, i32 noundef %18)
  call void @llvm.lifetime.end.p0(i64 4, ptr %3) #4
  ret i32 1
}