; Function Attrs: nounwind uwtable
define internal noundef i32 @db_setmetatable(ptr noundef %0) #0 {
  %2 = tail call i32 @lua_type(ptr noundef %0, i32 noundef 2) #8
  switch i32 %2, label %3 [
    i32 5, label %5
    i32 0, label %5
  ]

3:                                                ; preds = %1
  %4 = tail call i32 @luaL_argerror(ptr noundef %0, i32 noundef 2, ptr noundef nonnull @.str.41) #8
  br label %5

5:                                                ; preds = %1, %1, %3
  tail call void @lua_settop(ptr noundef %0, i32 noundef 2) #8
  %6 = tail call i32 @lua_setmetatable(ptr noundef %0, i32 noundef 1) #8
  tail call void @lua_pushboolean(ptr noundef %0, i32 noundef %6) #8
  ret i32 1
}